(lp0
(lp1
S'5'
p2
a(lp3
(I12
I0
tp4
a(I53
I320
tp5
a(I320
I231
tp6
a(I374
I1
tp7
aaI6
aF8.0
aVLevelOneFrag
p8
aa(lp9
S'10'
p10
a(lp11
(I479
I285
tp12
a(I0
I291
tp13
aaI9
aF15.0
aVWeakAimer
p14
aa(lp15
S'3'
p16
a(lp17
(I248
I0
tp18
a(I237
I381
tp19
a(I86
I639
tp20
aaI0
aF20.0
aVLevelOneFrag
p21
aa(lp22
S'3'
p23
a(lp24
(I248
I1
tp25
a(I235
I380
tp26
a(I352
I639
tp27
aaI7
aF20.0
aVLevelOneFrag
p28
aa(lp29
S'6'
p30
a(lp31
(I478
I80
tp32
a(I439
I199
tp33
a(I435
I248
tp34
a(I447
I304
tp35
a(I441
I348
tp36
a(I402
I389
tp37
a(I367
I373
tp38
a(I355
I349
tp39
a(I355
I347
tp40
a(I363
I327
tp41
a(I379
I320
tp42
a(I395
I324
tp43
a(I403
I338
tp44
a(I407
I356
tp45
a(I408
I375
tp46
a(I408
I399
tp47
a(I399
I433
tp48
a(I398
I506
tp49
a(I366
I569
tp50
a(I297
I601
tp51
a(I235
I605
tp52
a(I227
I638
tp53
aaI3
aF4.0
aVWeakAimer
p54
aa(lp55
S'6'
p56
a(lp57
(I2
I92
tp58
a(I63
I214
tp59
a(I84
I274
tp60
a(I53
I320
tp61
a(I14
I363
tp62
a(I18
I386
tp63
a(I50
I410
tp64
a(I62
I415
tp65
a(I92
I413
tp66
a(I107
I388
tp67
a(I108
I386
tp68
a(I99
I358
tp69
a(I86
I344
tp70
a(I66
I339
tp71
a(I53
I350
tp72
a(I47
I373
tp73
a(I53
I399
tp74
a(I55
I429
tp75
a(I63
I471
tp76
a(I74
I500
tp77
a(I90
I552
tp78
a(I94
I565
tp79
a(I134
I583
tp80
a(I170
I594
tp81
a(I192
I600
tp82
a(I234
I605
tp83
a(I229
I632
tp84
a(I231
I637
tp85
aaI4
aF5.0
aVWeakAimer
p86
aa(lp87
S'4'
p88
a(lp89
(I0
I196
tp90
a(I236
I393
tp91
a(I91
I1
tp92
aaI4
aF10.0
aVLevelOneFrag
p93
aa(lp94
S'1'
p95
a(lp96
(I463
I2
tp97
a(I445
I349
tp98
a(I478
I344
tp99
aaI0
aF6.0
aVWeakAimer
p100
aa(lp101
S'1'
p102
a(lp103
(I429
I0
tp104
a(I420
I346
tp105
a(I479
I361
tp106
aaI0
aF6.0
aVAlien
p107
aa(lp108
S'1'
p109
a(lp110
(I395
I1
tp111
a(I394
I350
tp112
a(I478
I323
tp113
aaI0
aF6.0
aVWeakAimer
p114
aa(lp115
S'10'
p116
a(lp117
(I2
I180
tp118
a(I87
I222
tp119
a(I193
I313
tp120
a(I209
I332
tp121
a(I220
I375
tp122
a(I225
I443
tp123
a(I209
I476
tp124
a(I170
I511
tp125
a(I115
I557
tp126
a(I115
I557
tp127
a(I51
I603
tp128
a(I24
I621
tp129
a(I0
I631
tp130
aaI8
aF12.0
aVLevelOneFrag
p131
aa(lp132
S'1'
p133
a(lp134
(I347
I16
tp135
a(I220
I637
tp136
aaI0
aF10.0
aVHeadingStrafer
p137
aa(lp138
S'3'
p139
a(lp140
(I72
I0
tp141
a(I74
I379
tp142
a(I451
I2
tp143
aaI1
aF16.0
aVGiantKiller
p144
aa(lp145
S'6'
p146
a(lp147
(I358
I0
tp148
a(I334
I637
tp149
aaI5
aF10.0
aVAlien
p150
aa(lp151
S'7'
p152
a(lp153
(I479
I486
tp154
a(I419
I269
tp155
a(I364
I189
tp156
a(I286
I127
tp157
a(I210
I103
tp158
a(I185
I115
tp159
a(I142
I148
tp160
a(I99
I241
tp161
a(I61
I334
tp162
a(I61
I334
tp163
a(I38
I413
tp164
a(I35
I486
tp165
a(I25
I567
tp166
a(I15
I609
tp167
a(I13
I624
tp168
a(I12
I638
tp169
aaI4
aF10.0
aVGiantKiller
p170
aa(lp171
S'9'
p172
a(lp173
(I478
I45
tp174
a(I1
I64
tp175
aaI5
aF10.0
aVLevelOneFrag
p176
aa(lp177
S'1'
p178
a(lp179
(I216
I0
tp180
a(I224
I637
tp181
aaI7
aF4.0
aVArmoredVulcan
p182
aa.