(lp0
(lp1
S'1'
p2
a(lp3
(I55
I11
tp4
a(I56
I638
tp5
a(I240
I640
tp6
a(I240
I640
tp7
ag6
a(I240
I640
tp8
ag6
a(I240
I640
tp9
aaI8
aF2.0
aVCircleStrafer
p10
aa(lp11
S'1'
p12
a(lp13
(I257
I1
tp14
a(I220
I636
tp15
aaI8
aF2.0
aVLongshotAimer
p16
aa(lp17
S'1'
p18
a(lp19
(I115
I1
tp20
a(I108
I639
tp21
aaI6
aF4.0
aVArmoredVulcan
p22
aa(lp23
S'1'
p24
a(lp25
(I189
I0
tp26
a(I187
I638
tp27
aaI6
aF5.0
aVCircleStrafer
p28
aa(lp29
S'1'
p30
a(lp31
(I398
I0
tp32
a(I162
I638
tp33
aaI3
aF2.0
aVLongshotAimer
p34
aa(lp35
S'7'
p36
a(lp37
(I318
I0
tp38
a(I400
I320
tp39
a(I240
I533
tp40
a(I240
I640
tp41
aaI0
aF12.0
aVGiantKiller
p42
aa(lp43
S'1'
p44
a(lp45
(I0
I0
tp46
a(I400
I533
tp47
a(I480
I320
tp48
aaI4
aF3.0
aVLongshotAimer
p49
aa(lp50
S'2'
p51
a(lp52
(I100
I0
tp53
ag40
ag47
a(I480
I640
tp54
aaI5
aF20.0
aVAlien
p55
aa(lp56
S'10'
p57
a(lp58
(I382
I1
tp59
ag40
a(I0
I640
tp60
aaI2
aF4.0
aVHeadingStrafer
p61
aa(lp62
S'13'
p63
a(lp64
(I240
I0
tp65
a(I383
I466
tp66
a(I240
I640
tp67
aaI4
aF20.0
aVHeadingStrafer
p68
aa(lp69
S'2'
p70
a(lp71
(I480
I0
tp72
a(I400
I320
tp73
a(I80
I533
tp74
a(I0
I320
tp75
aaI10
aF6.0
aVArmoredVulcan
p76
aa(lp77
S'10'
p78
a(lp79
(I479
I474
tp80
a(I0
I444
tp81
aaI3
aF10.0
aVLevelOneFrag
p82
aa(lp83
S'4'
p84
a(lp85
(I240
I0
tp86
a(I240
I640
tp87
aaI3
aF16.0
aVHeadingStrafer
p88
aa(lp89
S'2'
p90
a(lp91
(I480
I0
tp92
a(I80
I533
tp93
a(I66
I575
tp94
a(I23
I576
tp95
a(I14
I426
tp96
a(I59
I387
tp97
a(I74
I327
tp98
a(I80
I320
tp99
a(I80
I107
tp100
a(I0
I0
tp101
aaI5
aF8.0
aVLongshotAimer
p102
aa(lp103
S'2'
p104
a(lp105
g86
a(I480
I320
tp106
aaI4
aF3.0
aVGiantKillerTwo
p107
aa(lp108
S'3'
p109
a(lp110
(I80
I107
tp111
a(I400
I320
tp112
aaI2
aF7.0
aVAlien
p113
aa(lp114
S'1'
p115
a(lp116
(I351
I0
tp117
a(I400
I533
tp118
a(I392
I637
tp119
aaI10
aF2.0
aVCircleStrafer
p120
aa(lp121
S'20'
p122
a(lp123
(I0
I164
tp124
a(I480
I640
tp125
aaI0
aF3.0
aVWeakAimer
p126
aa(lp127
S'4'
p128
a(lp129
(I240
I0
tp130
a(I240
I640
tp131
aaI19
aF5.0
aVGiantKillerTwo
p132
aa(lp133
S'8'
p134
a(lp135
(I118
I0
tp136
a(I357
I638
tp137
aaI3
aF20.0
aVWeakAimer
p138
aa(lp139
S'20'
p140
a(lp141
(I1
I288
tp142
a(I477
I286
tp143
aaI0
aF15.0
aVAlien
p144
aa(lp145
S'1'
p146
a(lp147
(I0
I0
tp148
a(I240
I533
tp149
ag6
aaI0
aF5.0
aVGiantKillerTwo
p150
aa.